target datalayout = "e-m:e-p270:32:32-p271:32:32-p272:64:64-i64:64-i128:128-f80:128-n8:16:32:64-S128"
target triple = "x86_64-pc-linux-gnu"

%struct.ArrayType = type { i32, i32, i32, i32 }

@.str.1 = private unnamed_addr constant [10 x i8] c"funcapi.c\00", align 1
@.str.10 = private unnamed_addr constant [70 x i8] c"proargmodes is not a 1-D char array of length %d or it contains nulls\00", align 1
@.str.12 = private unnamed_addr constant [57 x i8] c"proargnames is not a 1-D text array or it contains nulls\00", align 1
@__func__.get_func_input_arg_names = private unnamed_addr constant [25 x i8] c"get_func_input_arg_names\00", align 1

; Function Attrs: inlinehint nounwind uwtable
define internal ptr @DatumGetPointer(i64 noundef %0) #4 {
  %2 = alloca i64, align 8
  store i64 %0, ptr %2, align 8
  %3 = load i64, ptr %2, align 8
  %4 = inttoptr i64 %3 to ptr
  ret ptr %4
}

; Function Attrs: inlinehint nounwind uwtable
define internal i64 @PointerGetDatum(ptr noundef %0) #4 {
  %2 = alloca ptr, align 8
  store ptr %0, ptr %2, align 8
  %3 = load ptr, ptr %2, align 8
  %4 = ptrtoint ptr %3 to i64
  ret i64 %4
}

; Function Attrs: nounwind uwtable
define dso_local i32 @get_func_input_arg_names(i64 noundef %0, i64 noundef %1, ptr noundef %2) #0 {
  %4 = alloca i32, align 4
  %5 = alloca i64, align 8
  %6 = alloca i64, align 8
  %7 = alloca ptr, align 8
  %8 = alloca ptr, align 8
  %9 = alloca i32, align 4
  %10 = alloca ptr, align 8
  %11 = alloca ptr, align 8
  %12 = alloca ptr, align 8
  %13 = alloca i32, align 4
  %14 = alloca i32, align 4
  %15 = alloca i32, align 4
  %16 = alloca ptr, align 8
  store i64 %0, ptr %5, align 8
  store i64 %1, ptr %6, align 8
  store ptr %2, ptr %7, align 8
  call void @llvm.lifetime.start.p0(i64 8, ptr %8) #7
  call void @llvm.lifetime.start.p0(i64 4, ptr %9) #7
  call void @llvm.lifetime.start.p0(i64 8, ptr %10) #7
  call void @llvm.lifetime.start.p0(i64 8, ptr %11) #7
  call void @llvm.lifetime.start.p0(i64 8, ptr %12) #7
  call void @llvm.lifetime.start.p0(i64 4, ptr %13) #7
  call void @llvm.lifetime.start.p0(i64 4, ptr %14) #7
  %17 = load i64, ptr %5, align 8
  %18 = call i64 @PointerGetDatum(ptr noundef null)
  %19 = icmp eq i64 %17, %18
  br i1 %19, label %20, label %22

20:                                               ; preds = %3
  %21 = load ptr, ptr %7, align 8
  store ptr null, ptr %21, align 8
  store i32 0, ptr %4, align 4
  store i32 1, ptr %15, align 4
  br label %193

22:                                               ; preds = %3
  %23 = load i64, ptr %5, align 8
  %24 = call ptr @DatumGetPointer(i64 noundef %23)
  %25 = call ptr @pg_detoast_datum(ptr noundef %24)
  store ptr %25, ptr %8, align 8
  %26 = load ptr, ptr %8, align 8
  %27 = getelementptr inbounds nuw %struct.ArrayType, ptr %26, i32 0, i32 1
  %28 = load i32, ptr %27, align 4
  %29 = icmp ne i32 %28, 1
  br i1 %29, label %40, label %30

30:                                               ; preds = %22
  %31 = load ptr, ptr %8, align 8
  %32 = getelementptr inbounds nuw %struct.ArrayType, ptr %31, i32 0, i32 2
  %33 = load i32, ptr %32, align 4
  %34 = icmp ne i32 %33, 0
  br i1 %34, label %40, label %35

35:                                               ; preds = %30
  %36 = load ptr, ptr %8, align 8
  %37 = getelementptr inbounds nuw %struct.ArrayType, ptr %36, i32 0, i32 3
  %38 = load i32, ptr %37, align 4
  %39 = icmp ne i32 %38, 25
  br i1 %39, label %40, label %51

40:                                               ; preds = %35, %30, %22
  br label %41

41:                                               ; preds = %40
  br i1 true, label %42, label %44

42:                                               ; preds = %41
  %43 = call zeroext i1 @errstart_cold(i32 noundef 21, ptr noundef null) #8
  br i1 %43, label %46, label %48

44:                                               ; preds = %41
  %45 = call zeroext i1 @errstart(i32 noundef 21, ptr noundef null)
  br i1 %45, label %46, label %48

46:                                               ; preds = %44, %42
  %47 = call i32 (ptr, ...) @errmsg_internal(ptr noundef @.str.12)
  call void @errfinish(ptr noundef @.str.1, i32 noundef 1549, ptr noundef @__func__.get_func_input_arg_names)
  br label %48

48:                                               ; preds = %46, %44, %42
  unreachable

49:                                               ; No predecessors!
  br label %50

50:                                               ; preds = %49
  br label %51

51:                                               ; preds = %50, %35
  %52 = load ptr, ptr %8, align 8
  call void @deconstruct_array_builtin(ptr noundef %52, i32 noundef 25, ptr noundef %10, ptr noundef null, ptr noundef %9)
  %53 = load i64, ptr %6, align 8
  %54 = call i64 @PointerGetDatum(ptr noundef null)
  %55 = icmp ne i64 %53, %54
  br i1 %55, label %56, label %116

56:                                               ; preds = %51
  %57 = load i64, ptr %6, align 8
  %58 = call ptr @DatumGetPointer(i64 noundef %57)
  %59 = call ptr @pg_detoast_datum(ptr noundef %58)
  store ptr %59, ptr %8, align 8
  %60 = load ptr, ptr %8, align 8
  %61 = getelementptr inbounds nuw %struct.ArrayType, ptr %60, i32 0, i32 1
  %62 = load i32, ptr %61, align 4
  %63 = icmp ne i32 %62, 1
  br i1 %63, label %81, label %64

64:                                               ; preds = %56
  %65 = load ptr, ptr %8, align 8
  %66 = getelementptr inbounds nuw i8, ptr %65, i64 16
  %67 = getelementptr inbounds i32, ptr %66, i64 0
  %68 = load i32, ptr %67, align 4
  %69 = load i32, ptr %9, align 4
  %70 = icmp ne i32 %68, %69
  br i1 %70, label %81, label %71

71:                                               ; preds = %64
  %72 = load ptr, ptr %8, align 8
  %73 = getelementptr inbounds nuw %struct.ArrayType, ptr %72, i32 0, i32 2
  %74 = load i32, ptr %73, align 4
  %75 = icmp ne i32 %74, 0
  br i1 %75, label %81, label %76

76:                                               ; preds = %71
  %77 = load ptr, ptr %8, align 8
  %78 = getelementptr inbounds nuw %struct.ArrayType, ptr %77, i32 0, i32 3
  %79 = load i32, ptr %78, align 4
  %80 = icmp ne i32 %79, 18
  br i1 %80, label %81, label %93

81:                                               ; preds = %76, %71, %64, %56
  br label %82

82:                                               ; preds = %81
  br i1 true, label %83, label %85

83:                                               ; preds = %82
  %84 = call zeroext i1 @errstart_cold(i32 noundef 21, ptr noundef null) #8
  br i1 %84, label %87, label %90

85:                                               ; preds = %82
  %86 = call zeroext i1 @errstart(i32 noundef 21, ptr noundef null)
  br i1 %86, label %87, label %90

87:                                               ; preds = %85, %83
  %88 = load i32, ptr %9, align 4
  %89 = call i32 (ptr, ...) @errmsg_internal(ptr noundef @.str.10, i32 noundef %88)
  call void @errfinish(ptr noundef @.str.1, i32 noundef 1559, ptr noundef @__func__.get_func_input_arg_names)
  br label %90

90:                                               ; preds = %87, %85, %83
  unreachable

91:                                               ; No predecessors!
  br label %92

92:                                               ; preds = %91
  br label %93

93:                                               ; preds = %92, %76
  %94 = load ptr, ptr %8, align 8
  %95 = load ptr, ptr %8, align 8
  %96 = getelementptr inbounds nuw %struct.ArrayType, ptr %95, i32 0, i32 2
  %97 = load i32, ptr %96, align 4
  %98 = icmp ne i32 %97, 0
  br i1 %98, label %99, label %104

99:                                               ; preds = %93
  %100 = load ptr, ptr %8, align 8
  %101 = getelementptr inbounds nuw %struct.ArrayType, ptr %100, i32 0, i32 2
  %102 = load i32, ptr %101, align 4
  %103 = sext i32 %102 to i64
  br label %113

104:                                              ; preds = %93
  %105 = load ptr, ptr %8, align 8
  %106 = getelementptr inbounds nuw %struct.ArrayType, ptr %105, i32 0, i32 1
  %107 = load i32, ptr %106, align 4
  %108 = sext i32 %107 to i64
  %109 = mul i64 8, %108
  %110 = add i64 16, %109
  %111 = add i64 %110, 7
  %112 = and i64 %111, -8
  br label %113

113:                                              ; preds = %104, %99
  %114 = phi i64 [ %103, %99 ], [ %112, %104 ]
  %115 = getelementptr inbounds nuw i8, ptr %94, i64 %114
  store ptr %115, ptr %11, align 8
  br label %117

116:                                              ; preds = %51
  store ptr null, ptr %11, align 8
  br label %117

117:                                              ; preds = %116, %113
  %118 = load i32, ptr %9, align 4
  %119 = icmp sle i32 %118, 0
  br i1 %119, label %120, label %122

120:                                              ; preds = %117
  %121 = load ptr, ptr %7, align 8
  store ptr null, ptr %121, align 8
  store i32 0, ptr %4, align 4
  store i32 1, ptr %15, align 4
  br label %193

122:                                              ; preds = %117
  %123 = load i32, ptr %9, align 4
  %124 = sext i32 %123 to i64
  %125 = mul i64 %124, 8
  %126 = call ptr @palloc(i64 noundef %125)
  store ptr %126, ptr %12, align 8
  store i32 0, ptr %13, align 4
  store i32 0, ptr %14, align 4
  br label %127

127:                                              ; preds = %186, %122
  %128 = load i32, ptr %14, align 4
  %129 = load i32, ptr %9, align 4
  %130 = icmp slt i32 %128, %129
  br i1 %130, label %131, label %189

131:                                              ; preds = %127
  %132 = load ptr, ptr %11, align 8
  %133 = icmp eq ptr %132, null
  br i1 %133, label %158, label %134

134:                                              ; preds = %131
  %135 = load ptr, ptr %11, align 8
  %136 = load i32, ptr %14, align 4
  %137 = sext i32 %136 to i64
  %138 = getelementptr inbounds i8, ptr %135, i64 %137
  %139 = load i8, ptr %138, align 1
  %140 = sext i8 %139 to i32
  %141 = icmp eq i32 %140, 105
  br i1 %141, label %158, label %142

142:                                              ; preds = %134
  %143 = load ptr, ptr %11, align 8
  %144 = load i32, ptr %14, align 4
  %145 = sext i32 %144 to i64
  %146 = getelementptr inbounds i8, ptr %143, i64 %145
  %147 = load i8, ptr %146, align 1
  %148 = sext i8 %147 to i32
  %149 = icmp eq i32 %148, 98
  br i1 %149, label %158, label %150

150:                                              ; preds = %142
  %151 = load ptr, ptr %11, align 8
  %152 = load i32, ptr %14, align 4
  %153 = sext i32 %152 to i64
  %154 = getelementptr inbounds i8, ptr %151, i64 %153
  %155 = load i8, ptr %154, align 1
  %156 = sext i8 %155 to i32
  %157 = icmp eq i32 %156, 118
  br i1 %157, label %158, label %185

158:                                              ; preds = %150, %142, %134, %131
  call void @llvm.lifetime.start.p0(i64 8, ptr %16) #7
  %159 = load ptr, ptr %10, align 8
  %160 = load i32, ptr %14, align 4
  %161 = sext i32 %160 to i64
  %162 = getelementptr inbounds i64, ptr %159, i64 %161
  %163 = load i64, ptr %162, align 8
  %164 = call ptr @DatumGetPointer(i64 noundef %163)
  %165 = call ptr @text_to_cstring(ptr noundef %164)
  store ptr %165, ptr %16, align 8
  %166 = load ptr, ptr %16, align 8
  %167 = getelementptr inbounds i8, ptr %166, i64 0
  %168 = load i8, ptr %167, align 1
  %169 = sext i8 %168 to i32
  %170 = icmp ne i32 %169, 0
  br i1 %170, label %171, label %177

171:                                              ; preds = %158
  %172 = load ptr, ptr %16, align 8
  %173 = load ptr, ptr %12, align 8
  %174 = load i32, ptr %13, align 4
  %175 = sext i32 %174 to i64
  %176 = getelementptr inbounds ptr, ptr %173, i64 %175
  store ptr %172, ptr %176, align 8
  br label %182

177:                                              ; preds = %158
  %178 = load ptr, ptr %12, align 8
  %179 = load i32, ptr %13, align 4
  %180 = sext i32 %179 to i64
  %181 = getelementptr inbounds ptr, ptr %178, i64 %180
  store ptr null, ptr %181, align 8
  br label %182

182:                                              ; preds = %177, %171
  %183 = load i32, ptr %13, align 4
  %184 = add i32 %183, 1
  store i32 %184, ptr %13, align 4
  call void @llvm.lifetime.end.p0(i64 8, ptr %16) #7
  br label %185

185:                                              ; preds = %182, %150
  br label %186

186:                                              ; preds = %185
  %187 = load i32, ptr %14, align 4
  %188 = add i32 %187, 1
  store i32 %188, ptr %14, align 4
  br label %127, !llvm.loop !11

189:                                              ; preds = %127
  %190 = load ptr, ptr %12, align 8
  %191 = load ptr, ptr %7, align 8
  store ptr %190, ptr %191, align 8
  %192 = load i32, ptr %13, align 4
  store i32 %192, ptr %4, align 4
  store i32 1, ptr %15, align 4
  br label %193

193:                                              ; preds = %189, %120, %20
  call void @llvm.lifetime.end.p0(i64 4, ptr %14) #7
  call void @llvm.lifetime.end.p0(i64 4, ptr %13) #7
  call void @llvm.lifetime.end.p0(i64 8, ptr %12) #7
  call void @llvm.lifetime.end.p0(i64 8, ptr %11) #7
  call void @llvm.lifetime.end.p0(i64 8, ptr %10) #7
  call void @llvm.lifetime.end.p0(i64 4, ptr %9) #7
  call void @llvm.lifetime.end.p0(i64 8, ptr %8) #7
  %194 = load i32, ptr %4, align 4
  ret i32 %194
}