; Function Attrs: nounwind uwtable
define dso_local i32 @get_func_input_arg_names(i64 noundef %0, i64 noundef %1, ptr noundef writeonly captures(none) %2) local_unnamed_addr #0 {
  %4 = alloca i32, align 4
  %5 = alloca ptr, align 8
  call void @llvm.lifetime.start.p0(i64 4, ptr nonnull %4) #8
  call void @llvm.lifetime.start.p0(i64 8, ptr nonnull %5) #8
  %6 = icmp eq i64 %0, 0
  br i1 %6, label %._crit_edge, label %7

7:                                                ; preds = %3
  %8 = inttoptr i64 %0 to ptr
  %9 = tail call ptr @pg_detoast_datum(ptr noundef nonnull %8) #8
  %10 = getelementptr inbounds nuw i8, ptr %9, i64 4
  %11 = load i32, ptr %10, align 4
  %.not = icmp eq i32 %11, 1
  br i1 %.not, label %12, label %18

12:                                               ; preds = %7
  %13 = getelementptr inbounds nuw i8, ptr %9, i64 8
  %14 = load i32, ptr %13, align 4
  %.not47 = icmp eq i32 %14, 0
  br i1 %.not47, label %15, label %18

15:                                               ; preds = %12
  %16 = getelementptr inbounds nuw i8, ptr %9, i64 12
  %17 = load i32, ptr %16, align 4
  %.not48 = icmp eq i32 %17, 25
  br i1 %.not48, label %21, label %18

18:                                               ; preds = %15, %12, %7
  %19 = tail call zeroext i1 @errstart_cold(i32 noundef 21, ptr noundef null) #9
  tail call void @llvm.assume(i1 %19)
  %20 = tail call i32 (ptr, ...) @errmsg_internal(ptr noundef nonnull @.str.12) #8
  tail call void @errfinish(ptr noundef nonnull @.str.1, i32 noundef 1549, ptr noundef nonnull @__func__.get_func_input_arg_names) #8
  unreachable

21:                                               ; preds = %15
  call void @deconstruct_array_builtin(ptr noundef nonnull %9, i32 noundef 25, ptr noundef nonnull %5, ptr noundef null, ptr noundef nonnull %4) #8
  %.not49 = icmp eq i64 %1, 0
  br i1 %.not49, label %._crit_edge64, label %22

._crit_edge64:                                    ; preds = %21
  %.pre = load i32, ptr %4, align 4
  br label %43

22:                                               ; preds = %21
  %23 = inttoptr i64 %1 to ptr
  %24 = call ptr @pg_detoast_datum(ptr noundef nonnull %23) #8
  %25 = getelementptr inbounds nuw i8, ptr %24, i64 4
  %26 = load i32, ptr %25, align 4
  %.not50 = icmp eq i32 %26, 1
  br i1 %.not50, label %27, label %37

27:                                               ; preds = %22
  %28 = getelementptr inbounds nuw i8, ptr %24, i64 16
  %29 = load i32, ptr %28, align 4
  %30 = load i32, ptr %4, align 4
  %.not51 = icmp eq i32 %29, %30
  br i1 %.not51, label %31, label %37

31:                                               ; preds = %27
  %32 = getelementptr inbounds nuw i8, ptr %24, i64 8
  %33 = load i32, ptr %32, align 4
  %.not52 = icmp eq i32 %33, 0
  br i1 %.not52, label %34, label %37

34:                                               ; preds = %31
  %35 = getelementptr inbounds nuw i8, ptr %24, i64 12
  %36 = load i32, ptr %35, align 4
  %.not53 = icmp eq i32 %36, 18
  br i1 %.not53, label %41, label %37

37:                                               ; preds = %34, %31, %27, %22
  %38 = call zeroext i1 @errstart_cold(i32 noundef 21, ptr noundef null) #9
  call void @llvm.assume(i1 %38)
  %39 = load i32, ptr %4, align 4
  %40 = call i32 (ptr, ...) @errmsg_internal(ptr noundef nonnull @.str.10, i32 noundef %39) #8
  call void @errfinish(ptr noundef nonnull @.str.1, i32 noundef 1559, ptr noundef nonnull @__func__.get_func_input_arg_names) #8
  unreachable

41:                                               ; preds = %34
  %42 = getelementptr inbounds nuw i8, ptr %24, i64 24
  br label %43

43:                                               ; preds = %._crit_edge64, %41
  %44 = phi i32 [ %29, %41 ], [ %.pre, %._crit_edge64 ]
  %.040 = phi ptr [ %42, %41 ], [ null, %._crit_edge64 ]
  %45 = icmp slt i32 %44, 1
  br i1 %45, label %._crit_edge, label %46

46:                                               ; preds = %43
  %47 = zext nneg i32 %44 to i64
  %48 = shl nuw nsw i64 %47, 3
  %49 = call ptr @palloc(i64 noundef %48) #8
  %50 = load i32, ptr %4, align 4
  %51 = icmp sgt i32 %50, 0
  br i1 %51, label %.lr.ph, label %._crit_edge

.lr.ph:                                           ; preds = %46
  %52 = icmp eq ptr %.040, null
  br i1 %52, label %.lr.ph.split.us, label %.lr.ph.split

.lr.ph.split.us:                                  ; preds = %.lr.ph, %.lr.ph.split.us
  %indvars.iv59 = phi i64 [ %indvars.iv.next60, %.lr.ph.split.us ], [ 0, %.lr.ph ]
  %53 = load ptr, ptr %5, align 8
  %54 = getelementptr inbounds nuw i64, ptr %53, i64 %indvars.iv59
  %55 = load i64, ptr %54, align 8
  %56 = inttoptr i64 %55 to ptr
  %57 = call ptr @text_to_cstring(ptr noundef %56) #8
  %58 = load i8, ptr %57, align 1
  %.not54.us = icmp eq i8 %58, 0
  %spec.select = select i1 %.not54.us, ptr null, ptr %57
  %59 = getelementptr inbounds nuw ptr, ptr %49, i64 %indvars.iv59
  store ptr %spec.select, ptr %59, align 8
  %indvars.iv.next60 = add nuw nsw i64 %indvars.iv59, 1
  %60 = load i32, ptr %4, align 4
  %61 = sext i32 %60 to i64
  %62 = icmp slt i64 %indvars.iv.next60, %61
  br i1 %62, label %.lr.ph.split.us, label %._crit_edge.loopexit, !llvm.loop !14

.lr.ph.split:                                     ; preds = %.lr.ph, %76
  %63 = phi i32 [ %77, %76 ], [ %50, %.lr.ph ]
  %indvars.iv = phi i64 [ %indvars.iv.next, %76 ], [ 0, %.lr.ph ]
  %.03955 = phi i32 [ %.1, %76 ], [ 0, %.lr.ph ]
  %64 = getelementptr inbounds nuw i8, ptr %.040, i64 %indvars.iv
  %65 = load i8, ptr %64, align 1
  switch i8 %65, label %76 [
    i8 105, label %66
    i8 98, label %66
    i8 118, label %66
  ]

66:                                               ; preds = %.lr.ph.split, %.lr.ph.split, %.lr.ph.split
  %67 = load ptr, ptr %5, align 8
  %68 = getelementptr inbounds nuw i64, ptr %67, i64 %indvars.iv
  %69 = load i64, ptr %68, align 8
  %70 = inttoptr i64 %69 to ptr
  %71 = call ptr @text_to_cstring(ptr noundef %70) #8
  %72 = load i8, ptr %71, align 1
  %.not54 = icmp eq i8 %72, 0
  %73 = sext i32 %.03955 to i64
  %74 = getelementptr inbounds ptr, ptr %49, i64 %73
  %. = select i1 %.not54, ptr null, ptr %71
  store ptr %., ptr %74, align 8
  %75 = add i32 %.03955, 1
  %.pre65 = load i32, ptr %4, align 4
  br label %76

76:                                               ; preds = %.lr.ph.split, %66
  %77 = phi i32 [ %.pre65, %66 ], [ %63, %.lr.ph.split ]
  %.1 = phi i32 [ %75, %66 ], [ %.03955, %.lr.ph.split ]
  %indvars.iv.next = add nuw nsw i64 %indvars.iv, 1
  %78 = sext i32 %77 to i64
  %79 = icmp slt i64 %indvars.iv.next, %78
  br i1 %79, label %.lr.ph.split, label %._crit_edge, !llvm.loop !14

._crit_edge.loopexit:                             ; preds = %.lr.ph.split.us
  %80 = trunc nuw nsw i64 %indvars.iv.next60 to i32
  br label %._crit_edge

._crit_edge:                                      ; preds = %76, %46, %._crit_edge.loopexit, %43, %3
  %.sink67 = phi ptr [ null, %3 ], [ null, %43 ], [ %49, %._crit_edge.loopexit ], [ %49, %46 ], [ %49, %76 ]
  %.0 = phi i32 [ 0, %3 ], [ 0, %43 ], [ %80, %._crit_edge.loopexit ], [ 0, %46 ], [ %.1, %76 ]
  store ptr %.sink67, ptr %2, align 8
  call void @llvm.lifetime.end.p0(i64 8, ptr nonnull %5) #8
  call void @llvm.lifetime.end.p0(i64 4, ptr nonnull %4) #8
  ret i32 %.0
}